Certificate:
    Data:
        Version: 3 (0x2)
        Serial Number:
            41:6e:df:d4:be:3d:21:3d:1d:26:bf:f7:95:6b:f5:c3:99:b9:c0:1f
        Signature Algorithm: sha256WithRSAEncryption
        Issuer: C=GB, ST=Test State or Province, L=Test Locality, O=Organization Name, OU=Organizational Unit Name, CN=Common Name, emailAddress=test@email.address
        Validity
            Not Before: Dec  4 14:40:04 2024 GMT
            Not After : Jan  4 14:40:04 2025 GMT
        Subject: C=GB, ST=Test State or Province, L=Test Locality, O=Organization Name, OU=Organizational Unit Name, CN=Common Name, emailAddress=test@email.address
        Subject Public Key Info:
            Public Key Algorithm: rsaEncryption
                Public-Key: (2048 bit)
                Modulus:
                    00:a1:ec:ef:b2:1e:0e:80:58:52:68:be:24:6c:8b:
                    e2:d0:52:fd:8c:39:28:30:40:9b:1a:3a:44:d8:30:
                    7d:6b:4d:a2:35:3e:6f:fb:4f:5c:ec:32:01:ac:16:
                    99:f6:fc:79:b1:b4:8d:6f:cd:2d:9a:a0:3b:b9:dc:
                    c5:4e:00:6c:c2:29:5d:6d:72:c1:7f:12:81:78:62:
                    ec:7c:5e:d0:89:9d:90:27:46:f0:4b:cb:69:c0:4d:
                    b4:f2:cc:fe:5c:ab:48:77:82:ec:da:29:41:9f:1f:
                    94:fd:c0:26:c6:e5:74:62:b8:76:85:ed:ef:63:93:
                    ab:95:fe:bf:9a:fd:fb:4f:b5:2a:8d:64:b6:c7:90:
                    ba:b4:0b:ad:2d:68:5b:c4:57:36:0d:96:b9:37:f2:
                    3a:3f:ec:a1:ae:5a:68:d5:37:9e:16:0d:65:b3:89:
                    e9:0e:0f:1a:e9:b7:31:e7:26:9e:11:65:a1:97:31:
                    67:34:06:ad:99:d2:31:fc:78:c0:8c:1d:6a:03:cc:
                    a9:82:20:88:11:3f:17:df:9e:85:ee:2d:7c:a9:3b:
                    93:27:cd:73:7b:e7:82:37:a0:2a:cd:01:cb:99:c9:
                    c5:62:7a:6d:e8:88:e5:fa:e7:65:e5:ea:db:4f:66:
                    db:1c:6c:eb:68:72:a9:38:d0:6d:18:e1:6a:c2:9d:
                    95:d9
                Exponent: 65537 (0x10001)
        X509v3 extensions:
            X509v3 Subject Key Identifier: 
                A8:7C:87:9D:7F:62:D2:85:F7:E1:6F:95:00:6E:A6:6C:CF:AB:3A:EC
            X509v3 Authority Key Identifier: 
                A8:7C:87:9D:7F:62:D2:85:F7:E1:6F:95:00:6E:A6:6C:CF:AB:3A:EC
            X509v3 Basic Constraints: critical
                CA:TRUE
    Signature Algorithm: sha256WithRSAEncryption
    Signature Value:
        40:f2:ce:e0:2c:ab:c0:8b:23:dc:8f:6c:d3:a8:a6:4d:a0:9b:
        85:81:3d:16:32:1d:57:93:2a:8e:85:e6:48:0b:a7:71:b3:55:
        34:0c:a7:7d:f9:d4:0a:05:e8:d3:28:d4:07:b1:57:d1:96:91:
        9e:2a:48:13:3d:18:3b:1b:2a:8b:6e:93:ba:35:8f:e9:16:68:
        07:80:98:91:f6:6f:cb:7e:da:e9:19:41:f0:26:4a:7c:2c:86:
        9d:b0:f4:d4:e4:c1:e6:d0:9f:de:92:69:4c:8d:1d:1a:4b:e4:
        83:03:22:c0:f6:ff:62:fe:97:f7:04:bc:a3:45:5e:f2:c2:17:
        3d:5c:aa:fa:f0:32:ac:41:87:78:d6:87:fa:d7:32:e3:97:2b:
        73:87:37:17:7d:a7:77:68:27:66:70:bc:66:a6:f4:86:48:d9:
        94:e8:88:88:16:28:be:a9:da:58:b7:f1:fd:93:04:60:79:91:
        55:1c:57:19:20:1c:9f:bd:ec:f4:29:1a:67:38:40:99:ba:c8:
        19:cf:8b:ea:0e:a7:22:c5:06:86:40:5d:a3:18:68:41:11:0f:
        ca:ef:63:5b:93:86:ec:b7:49:e8:88:62:17:67:9f:fa:84:03:
        3e:b2:2a:0e:fd:01:1f:38:fa:5b:33:c9:47:69:3a:f6:eb:c4:
        11:8f:6f:6b
-----BEGIN CERTIFICATE-----
MIIEXzCCA0egAwIBAgIUQW7f1L49IT0dJr/3lWv1w5m5wB8wDQYJKoZIhvcNAQEL
BQAwgb4xCzAJBgNVBAYTAkdCMR8wHQYDVQQIDBZUZXN0IFN0YXRlIG9yIFByb3Zp
bmNlMRYwFAYDVQQHDA1UZXN0IExvY2FsaXR5MRowGAYDVQQKDBFPcmdhbml6YXRp
b24gTmFtZTEhMB8GA1UECwwYT3JnYW5pemF0aW9uYWwgVW5pdCBOYW1lMRQwEgYD
VQQDDAtDb21tb24gTmFtZTEhMB8GCSqGSIb3DQEJARYSdGVzdEBlbWFpbC5hZGRy
ZXNzMB4XDTI0MTIwNDE0NDAwNFoXDTI1MDEwNDE0NDAwNFowgb4xCzAJBgNVBAYT
AkdCMR8wHQYDVQQIDBZUZXN0IFN0YXRlIG9yIFByb3ZpbmNlMRYwFAYDVQQHDA1U
ZXN0IExvY2FsaXR5MRowGAYDVQQKDBFPcmdhbml6YXRpb24gTmFtZTEhMB8GA1UE
CwwYT3JnYW5pemF0aW9uYWwgVW5pdCBOYW1lMRQwEgYDVQQDDAtDb21tb24gTmFt
ZTEhMB8GCSqGSIb3DQEJARYSdGVzdEBlbWFpbC5hZGRyZXNzMIIBIjANBgkqhkiG
9w0BAQEFAAOCAQ8AMIIBCgKCAQEAoezvsh4OgFhSaL4kbIvi0FL9jDkoMECbGjpE
2DB9a02iNT5v+09c7DIBrBaZ9vx5sbSNb80tmqA7udzFTgBswildbXLBfxKBeGLs
fF7QiZ2QJ0bwS8tpwE208sz+XKtId4Ls2ilBnx+U/cAmxuV0Yrh2he3vY5Orlf6/
mv37T7UqjWS2x5C6tAutLWhbxFc2DZa5N/I6P+yhrlpo1TeeFg1ls4npDg8a6bcx
5yaeEWWhlzFnNAatmdIx/HjAjB1qA8ypgiCIET8X356F7i18qTuTJ81ze+eCN6Aq
zQHLmcnFYnpt6Ijl+udl5erbT2bbHGzraHKpONBtGOFqwp2V2QIDAQABo1MwUTAd
BgNVHQ4EFgQUqHyHnX9i0oX34W+VAG6mbM+rOuwwHwYDVR0jBBgwFoAUqHyHnX9i
0oX34W+VAG6mbM+rOuwwDwYDVR0TAQH/BAUwAwEB/zANBgkqhkiG9w0BAQsFAAOC
AQEAQPLO4CyrwIsj3I9s06imTaCbhYE9FjIdV5MqjoXmSAuncbNVNAynffnUCgXo
0yjUB7FX0ZaRnipIEz0YOxsqi26TujWP6RZoB4CYkfZvy37a6RlB8CZKfCyGnbD0
1OTB5tCf3pJpTI0dGkvkgwMiwPb/Yv6X9wS8o0Ve8sIXPVyq+vAyrEGHeNaH+tcy
45crc4c3F32nd2gnZnC8Zqb0hkjZlOiIiBYovqnaWLfx/ZMEYHmRVRxXGSAcn73s
9CkaZzhAmbrIGc+L6g6nIsUGhkBdoxhoQREPyu9jW5OG7LdJ6IhiF2ef+oQDPrIq
Dv0BHzj6WzPJR2k69uvEEY9vaw==
-----END CERTIFICATE-----
